; ModuleID = '17/94.c'
source_filename = "17/94.c"
target datalayout = "e-m:e-p270:32:32-p271:32:32-p272:64:64-i64:64-f80:128-n8:16:32:64-S128"
target triple = "x86_64-pc-linux-gnu"

@.str = private unnamed_addr constant [4 x i8] c"%s\0A\00", align 1
@.str.1 = private unnamed_addr constant [2 x i8] c" \00", align 1
@.str.2 = private unnamed_addr constant [2 x i8] c"$\00", align 1
@.str.3 = private unnamed_addr constant [2 x i8] c"?\00", align 1
@.str.4 = private unnamed_addr constant [2 x i8] c"\0A\00", align 1

; Function Attrs: noinline nounwind uwtable
define dso_local i32 @main() #0 {
  %1 = alloca i32, align 4
  %2 = alloca [200 x i8], align 16
  %3 = alloca i32, align 4
  %4 = alloca i32, align 4
  %5 = alloca i32, align 4
  %6 = alloca i32, align 4
  %7 = alloca i32, align 4
  %8 = alloca i32, align 4
  store i32 0, i32* %1, align 4
  br label %9

9:                                                ; preds = %152, %0
  %10 = getelementptr inbounds [200 x i8], [200 x i8]* %2, i64 0, i64 0
  %11 = call i32 (i8*, ...) bitcast (i32 (...)* @gets to i32 (i8*, ...)*)(i8* %10)
  %12 = sext i32 %11 to i64
  %13 = inttoptr i64 %12 to i8*
  %14 = icmp ne i8* %13, null
  br i1 %14, label %15, label %154

15:                                               ; preds = %9
  %16 = getelementptr inbounds [200 x i8], [200 x i8]* %2, i64 0, i64 0
  %17 = call i64 @strlen(i8* %16) #3
  %18 = trunc i64 %17 to i32
  store i32 %18, i32* %6, align 4
  %19 = getelementptr inbounds [200 x i8], [200 x i8]* %2, i64 0, i64 0
  %20 = call i32 (i8*, ...) @printf(i8* getelementptr inbounds ([4 x i8], [4 x i8]* @.str, i64 0, i64 0), i8* %19)
  store i32 0, i32* %3, align 4
  br label %21

21:                                               ; preds = %149, %15
  %22 = load i32, i32* %3, align 4
  %23 = load i32, i32* %6, align 4
  %24 = icmp slt i32 %22, %23
  br i1 %24, label %25, label %152

25:                                               ; preds = %21
  store i32 0, i32* %7, align 4
  store i32 0, i32* %8, align 4
  %26 = load i32, i32* %3, align 4
  %27 = sext i32 %26 to i64
  %28 = getelementptr inbounds [200 x i8], [200 x i8]* %2, i64 0, i64 %27
  %29 = load i8, i8* %28, align 1
  %30 = sext i8 %29 to i32
  %31 = icmp ne i32 %30, 40
  br i1 %31, label %32, label %41

32:                                               ; preds = %25
  %33 = load i32, i32* %3, align 4
  %34 = sext i32 %33 to i64
  %35 = getelementptr inbounds [200 x i8], [200 x i8]* %2, i64 0, i64 %34
  %36 = load i8, i8* %35, align 1
  %37 = sext i8 %36 to i32
  %38 = icmp ne i32 %37, 41
  br i1 %38, label %39, label %41

39:                                               ; preds = %32
  %40 = call i32 (i8*, ...) @printf(i8* getelementptr inbounds ([2 x i8], [2 x i8]* @.str.1, i64 0, i64 0))
  br label %148

41:                                               ; preds = %32, %25
  %42 = load i32, i32* %3, align 4
  %43 = sext i32 %42 to i64
  %44 = getelementptr inbounds [200 x i8], [200 x i8]* %2, i64 0, i64 %43
  %45 = load i8, i8* %44, align 1
  %46 = sext i8 %45 to i32
  %47 = icmp eq i32 %46, 40
  br i1 %47, label %48, label %92

48:                                               ; preds = %41
  %49 = load i32, i32* %3, align 4
  %50 = add nsw i32 %49, 1
  store i32 %50, i32* %4, align 4
  br label %51

51:                                               ; preds = %88, %48
  %52 = load i32, i32* %4, align 4
  %53 = load i32, i32* %6, align 4
  %54 = icmp sle i32 %52, %53
  br i1 %54, label %55, label %91

55:                                               ; preds = %51
  %56 = load i32, i32* %4, align 4
  %57 = sext i32 %56 to i64
  %58 = getelementptr inbounds [200 x i8], [200 x i8]* %2, i64 0, i64 %57
  %59 = load i8, i8* %58, align 1
  %60 = sext i8 %59 to i32
  %61 = icmp eq i32 %60, 41
  br i1 %61, label %62, label %71

62:                                               ; preds = %55
  %63 = load i32, i32* %8, align 4
  %64 = add nsw i32 %63, 1
  store i32 %64, i32* %8, align 4
  %65 = load i32, i32* %8, align 4
  %66 = load i32, i32* %7, align 4
  %67 = icmp sgt i32 %65, %66
  br i1 %67, label %68, label %70

68:                                               ; preds = %62
  %69 = call i32 (i8*, ...) @printf(i8* getelementptr inbounds ([2 x i8], [2 x i8]* @.str.1, i64 0, i64 0))
  br label %91

70:                                               ; preds = %62
  br label %71

71:                                               ; preds = %70, %55
  %72 = load i32, i32* %4, align 4
  %73 = sext i32 %72 to i64
  %74 = getelementptr inbounds [200 x i8], [200 x i8]* %2, i64 0, i64 %73
  %75 = load i8, i8* %74, align 1
  %76 = sext i8 %75 to i32
  %77 = icmp eq i32 %76, 40
  br i1 %77, label %78, label %81

78:                                               ; preds = %71
  %79 = load i32, i32* %7, align 4
  %80 = add nsw i32 %79, 1
  store i32 %80, i32* %7, align 4
  br label %81

81:                                               ; preds = %78, %71
  %82 = load i32, i32* %4, align 4
  %83 = load i32, i32* %6, align 4
  %84 = icmp eq i32 %82, %83
  br i1 %84, label %85, label %87

85:                                               ; preds = %81
  %86 = call i32 (i8*, ...) @printf(i8* getelementptr inbounds ([2 x i8], [2 x i8]* @.str.2, i64 0, i64 0))
  br label %91

87:                                               ; preds = %81
  br label %88

88:                                               ; preds = %87
  %89 = load i32, i32* %4, align 4
  %90 = add nsw i32 %89, 1
  store i32 %90, i32* %4, align 4
  br label %51

91:                                               ; preds = %85, %68, %51
  br label %147

92:                                               ; preds = %41
  %93 = load i32, i32* %3, align 4
  %94 = sext i32 %93 to i64
  %95 = getelementptr inbounds [200 x i8], [200 x i8]* %2, i64 0, i64 %94
  %96 = load i8, i8* %95, align 1
  %97 = sext i8 %96 to i32
  %98 = icmp eq i32 %97, 41
  br i1 %98, label %99, label %146

99:                                               ; preds = %92
  %100 = load i32, i32* %3, align 4
  %101 = icmp eq i32 %100, 0
  br i1 %101, label %102, label %104

102:                                              ; preds = %99
  %103 = call i32 (i8*, ...) @printf(i8* getelementptr inbounds ([2 x i8], [2 x i8]* @.str.3, i64 0, i64 0))
  br label %104

104:                                              ; preds = %102, %99
  %105 = load i32, i32* %3, align 4
  %106 = sub nsw i32 %105, 1
  store i32 %106, i32* %4, align 4
  br label %107

107:                                              ; preds = %142, %104
  %108 = load i32, i32* %4, align 4
  %109 = icmp sge i32 %108, 0
  br i1 %109, label %110, label %145

110:                                              ; preds = %107
  %111 = load i32, i32* %4, align 4
  %112 = sext i32 %111 to i64
  %113 = getelementptr inbounds [200 x i8], [200 x i8]* %2, i64 0, i64 %112
  %114 = load i8, i8* %113, align 1
  %115 = sext i8 %114 to i32
  %116 = icmp eq i32 %115, 40
  br i1 %116, label %117, label %126

117:                                              ; preds = %110
  %118 = load i32, i32* %7, align 4
  %119 = add nsw i32 %118, 1
  store i32 %119, i32* %7, align 4
  %120 = load i32, i32* %7, align 4
  %121 = load i32, i32* %8, align 4
  %122 = icmp sgt i32 %120, %121
  br i1 %122, label %123, label %125

123:                                              ; preds = %117
  %124 = call i32 (i8*, ...) @printf(i8* getelementptr inbounds ([2 x i8], [2 x i8]* @.str.1, i64 0, i64 0))
  br label %145

125:                                              ; preds = %117
  br label %126

126:                                              ; preds = %125, %110
  %127 = load i32, i32* %4, align 4
  %128 = sext i32 %127 to i64
  %129 = getelementptr inbounds [200 x i8], [200 x i8]* %2, i64 0, i64 %128
  %130 = load i8, i8* %129, align 1
  %131 = sext i8 %130 to i32
  %132 = icmp eq i32 %131, 41
  br i1 %132, label %133, label %136

133:                                              ; preds = %126
  %134 = load i32, i32* %8, align 4
  %135 = add nsw i32 %134, 1
  store i32 %135, i32* %8, align 4
  br label %136

136:                                              ; preds = %133, %126
  %137 = load i32, i32* %4, align 4
  %138 = icmp eq i32 %137, 0
  br i1 %138, label %139, label %141

139:                                              ; preds = %136
  %140 = call i32 (i8*, ...) @printf(i8* getelementptr inbounds ([2 x i8], [2 x i8]* @.str.3, i64 0, i64 0))
  br label %141

141:                                              ; preds = %139, %136
  br label %142

142:                                              ; preds = %141
  %143 = load i32, i32* %4, align 4
  %144 = add nsw i32 %143, -1
  store i32 %144, i32* %4, align 4
  br label %107

145:                                              ; preds = %123, %107
  br label %146

146:                                              ; preds = %145, %92
  br label %147

147:                                              ; preds = %146, %91
  br label %148

148:                                              ; preds = %147, %39
  br label %149

149:                                              ; preds = %148
  %150 = load i32, i32* %3, align 4
  %151 = add nsw i32 %150, 1
  store i32 %151, i32* %3, align 4
  br label %21

152:                                              ; preds = %21
  %153 = call i32 (i8*, ...) @printf(i8* getelementptr inbounds ([2 x i8], [2 x i8]* @.str.4, i64 0, i64 0))
  br label %9

154:                                              ; preds = %9
  ret i32 0
}

declare dso_local i32 @gets(...) #1

; Function Attrs: nounwind readonly
declare dso_local i64 @strlen(i8*) #2

declare dso_local i32 @printf(i8*, ...) #1


!llvm.module.flags = !{!0}
!llvm.ident = !{!1}

!0 = !{i32 1, !"wchar_size", i32 4}
!1 = !{!"clang version 10.0.0-4ubuntu1 "}
